; ModuleID = '45/226.c'
source_filename = "45/226.c"
target datalayout = "e-m:e-p270:32:32-p271:32:32-p272:64:64-i64:64-f80:128-n8:16:32:64-S128"
target triple = "x86_64-pc-linux-gnu"

@.str = private unnamed_addr constant [6 x i8] c"%s %s\00", align 1
@.str.1 = private unnamed_addr constant [3 x i8] c"%d\00", align 1

; Function Attrs: noinline nounwind uwtable
define dso_local void @main() #0 {
  %1 = alloca [50 x i8], align 16
  %2 = alloca [50 x i8], align 16
  %3 = alloca i32, align 4
  %4 = alloca i32, align 4
  %5 = alloca i32, align 4
  %6 = alloca i32, align 4
  %7 = alloca i32, align 4
  %8 = alloca i32, align 4
  %9 = call i32 (i8*, ...) @__isoc99_scanf(i8* getelementptr inbounds ([6 x i8], [6 x i8]* @.str, i64 0, i64 0), [50 x i8]* %1, [50 x i8]* %2)
  %10 = getelementptr inbounds [50 x i8], [50 x i8]* %1, i64 0, i64 0
  %11 = call i64 @strlen(i8* %10) #3
  %12 = trunc i64 %11 to i32
  store i32 %12, i32* %3, align 4
  %13 = getelementptr inbounds [50 x i8], [50 x i8]* %2, i64 0, i64 0
  %14 = call i64 @strlen(i8* %13) #3
  %15 = trunc i64 %14 to i32
  store i32 %15, i32* %4, align 4
  %16 = load i32, i32* %3, align 4
  %17 = sext i32 %16 to i64
  %18 = getelementptr inbounds [50 x i8], [50 x i8]* %1, i64 0, i64 %17
  store i8 0, i8* %18, align 1
  %19 = load i32, i32* %4, align 4
  %20 = sext i32 %19 to i64
  %21 = getelementptr inbounds [50 x i8], [50 x i8]* %2, i64 0, i64 %20
  store i8 0, i8* %21, align 1
  store i32 0, i32* %6, align 4
  br label %22

22:                                               ; preds = %60, %0
  %23 = load i32, i32* %6, align 4
  %24 = load i32, i32* %4, align 4
  %25 = load i32, i32* %3, align 4
  %26 = sub nsw i32 %24, %25
  %27 = add nsw i32 %26, 1
  %28 = icmp slt i32 %23, %27
  br i1 %28, label %29, label %63

29:                                               ; preds = %22
  store i32 0, i32* %7, align 4
  br label %30

30:                                               ; preds = %51, %29
  %31 = load i32, i32* %7, align 4
  %32 = load i32, i32* %3, align 4
  %33 = icmp sle i32 %31, %32
  br i1 %33, label %34, label %54

34:                                               ; preds = %30
  %35 = load i32, i32* %6, align 4
  %36 = load i32, i32* %7, align 4
  %37 = add nsw i32 %35, %36
  %38 = sext i32 %37 to i64
  %39 = getelementptr inbounds [50 x i8], [50 x i8]* %2, i64 0, i64 %38
  %40 = load i8, i8* %39, align 1
  %41 = sext i8 %40 to i32
  %42 = load i32, i32* %7, align 4
  %43 = sext i32 %42 to i64
  %44 = getelementptr inbounds [50 x i8], [50 x i8]* %1, i64 0, i64 %43
  %45 = load i8, i8* %44, align 1
  %46 = sext i8 %45 to i32
  %47 = sub nsw i32 %41, %46
  %48 = icmp ne i32 %47, 0
  br i1 %48, label %49, label %50

49:                                               ; preds = %34
  br label %54

50:                                               ; preds = %34
  br label %51

51:                                               ; preds = %50
  %52 = load i32, i32* %7, align 4
  %53 = add nsw i32 %52, 1
  store i32 %53, i32* %7, align 4
  br label %30

54:                                               ; preds = %49, %30
  %55 = load i32, i32* %7, align 4
  %56 = load i32, i32* %3, align 4
  %57 = icmp eq i32 %55, %56
  br i1 %57, label %58, label %59

58:                                               ; preds = %54
  br label %63

59:                                               ; preds = %54
  br label %60

60:                                               ; preds = %59
  %61 = load i32, i32* %6, align 4
  %62 = add nsw i32 %61, 1
  store i32 %62, i32* %6, align 4
  br label %22

63:                                               ; preds = %58, %22
  %64 = load i32, i32* %6, align 4
  %65 = load i32, i32* %4, align 4
  %66 = load i32, i32* %3, align 4
  %67 = sub nsw i32 %65, %66
  %68 = icmp sle i32 %64, %67
  br i1 %68, label %69, label %72

69:                                               ; preds = %63
  %70 = load i32, i32* %6, align 4
  %71 = call i32 (i8*, ...) @printf(i8* getelementptr inbounds ([3 x i8], [3 x i8]* @.str.1, i64 0, i64 0), i32 %70)
  br label %117

72:                                               ; preds = %63
  %73 = load i32, i32* %6, align 4
  %74 = load i32, i32* %4, align 4
  %75 = load i32, i32* %3, align 4
  %76 = sub nsw i32 %74, %75
  %77 = add nsw i32 %76, 1
  %78 = icmp eq i32 %73, %77
  br i1 %78, label %79, label %116

79:                                               ; preds = %72
  store i32 0, i32* %8, align 4
  br label %80

80:                                               ; preds = %102, %79
  %81 = load i32, i32* %8, align 4
  %82 = load i32, i32* %3, align 4
  %83 = icmp sle i32 %81, %82
  br i1 %83, label %84, label %105

84:                                               ; preds = %80
  %85 = load i32, i32* %8, align 4
  %86 = load i32, i32* %4, align 4
  %87 = add nsw i32 %85, %86
  %88 = load i32, i32* %3, align 4
  %89 = sub nsw i32 %87, %88
  %90 = sext i32 %89 to i64
  %91 = getelementptr inbounds [50 x i8], [50 x i8]* %2, i64 0, i64 %90
  %92 = load i8, i8* %91, align 1
  %93 = sext i8 %92 to i32
  %94 = load i32, i32* %8, align 4
  %95 = sext i32 %94 to i64
  %96 = getelementptr inbounds [50 x i8], [50 x i8]* %1, i64 0, i64 %95
  %97 = load i8, i8* %96, align 1
  %98 = sext i8 %97 to i32
  %99 = icmp ne i32 %93, %98
  br i1 %99, label %100, label %101

100:                                              ; preds = %84
  br label %105

101:                                              ; preds = %84
  br label %102

102:                                              ; preds = %101
  %103 = load i32, i32* %8, align 4
  %104 = add nsw i32 %103, 1
  store i32 %104, i32* %8, align 4
  br label %80

105:                                              ; preds = %100, %80
  %106 = load i32, i32* %8, align 4
  %107 = load i32, i32* %3, align 4
  %108 = add nsw i32 %107, 1
  %109 = icmp eq i32 %106, %108
  br i1 %109, label %110, label %115

110:                                              ; preds = %105
  %111 = load i32, i32* %4, align 4
  %112 = load i32, i32* %3, align 4
  %113 = sub nsw i32 %111, %112
  %114 = call i32 (i8*, ...) @printf(i8* getelementptr inbounds ([3 x i8], [3 x i8]* @.str.1, i64 0, i64 0), i32 %113)
  br label %115

115:                                              ; preds = %110, %105
  br label %116

116:                                              ; preds = %115, %72
  br label %117

117:                                              ; preds = %116, %69
  ret void
}

declare dso_local i32 @__isoc99_scanf(i8*, ...) #1

; Function Attrs: nounwind readonly
declare dso_local i64 @strlen(i8*) #2

declare dso_local i32 @printf(i8*, ...) #1


!llvm.module.flags = !{!0}
!llvm.ident = !{!1}

!0 = !{i32 1, !"wchar_size", i32 4}
!1 = !{!"clang version 10.0.0-4ubuntu1 "}
